target datalayout = "e-m:e-p270:32:32-p271:32:32-p272:64:64-i64:64-i128:128-f80:128-n8:16:32:64-S128"
target triple = "x86_64-pc-linux-gnu"

%"class.sat::literal" = type { i32 }
%"struct.sat::local_search::var_info" = type { i8, i32, i8, %"class.sat::literal", i8, i8, i32, i32, i32, %class.svector.1, [2 x %class.svector.11], [2 x %class.svector.4], i32, %class.ema, double }
%class.svector.1 = type { %class.vector.2 }
%class.vector.2 = type { ptr }
%class.svector.11 = type { %class.vector.12 }
%class.vector.12 = type { ptr }
%class.svector.4 = type { %class.vector.5 }
%class.vector.5 = type { ptr }
%class.ema = type { double, double, double, i32, i32 }
%"class.sat::local_search" = type { %"class.sat::i_local_search", %"struct.sat::local_search::stats", %"class.sat::local_search_config", %class.vector, %class.svector, %class.svector.1, %class.vector.3, %class.svector.4, %class.svector.4, i32, i8, i8, %class.svector.1, %class.svector.1, %class.svector.1, i8, i32, double, double, i32, i32, double, double, %class.reslimit, %class.random_gen, ptr, %class.svector.9 }
%"class.sat::i_local_search" = type { ptr }
%"struct.sat::local_search::stats" = type { i32, i32 }
%"class.sat::local_search_config" = type { i32, i32, i32, i8, i8, double }
%class.vector = type { ptr }
%class.svector = type { %class.vector.0 }
%class.vector.0 = type { ptr }
%class.vector.3 = type { ptr }
%class.reslimit = type { %"struct.std::atomic", i8, i64, i64, %class.svector.6, %class.ptr_vector }
%"struct.std::atomic" = type { %"struct.std::__atomic_base" }
%"struct.std::__atomic_base" = type { i32 }
%class.svector.6 = type { %class.vector.7 }
%class.vector.7 = type { ptr }
%class.ptr_vector = type { %class.vector.8 }
%class.vector.8 = type { ptr }
%class.random_gen = type { i32 }
%class.svector.9 = type { %class.vector.10 }
%class.vector.10 = type { ptr }

; Function Attrs: mustprogress nounwind uwtable
define linkonce_odr hidden noundef nonnull align 8 dereferenceable(120) ptr @_ZNK6vectorIN3sat12local_search8var_infoELb1EjEixEj(ptr noundef nonnull align 8 dereferenceable(8) %0, i32 noundef %1) #6 comdat align 2 {
  %3 = alloca ptr, align 8
  %4 = alloca i32, align 4
  store ptr %0, ptr %3, align 8, !tbaa !51
  store i32 %1, ptr %4, align 4, !tbaa !10
  %5 = load ptr, ptr %3, align 8
  %6 = getelementptr inbounds nuw %class.vector, ptr %5, i32 0, i32 0
  %7 = load ptr, ptr %6, align 8, !tbaa !73
  %8 = load i32, ptr %4, align 4, !tbaa !10
  %9 = zext i32 %8 to i64
  %10 = getelementptr inbounds nuw %"struct.sat::local_search::var_info", ptr %7, i64 %9
  ret ptr %10
}

; Function Attrs: mustprogress uwtable
define linkonce_odr hidden noundef nonnull align 8 dereferenceable(8) ptr @_ZN6vectorIjLb0EjE9push_backERKj(ptr noundef nonnull align 8 dereferenceable(8) %0, ptr noundef nonnull align 4 dereferenceable(4) %1) #4 comdat align 2 {
  %3 = alloca ptr, align 8
  %4 = alloca ptr, align 8
  store ptr %0, ptr %3, align 8, !tbaa !66
  store ptr %1, ptr %4, align 8, !tbaa !88
  %5 = load ptr, ptr %3, align 8
  %6 = getelementptr inbounds nuw %class.vector.2, ptr %5, i32 0, i32 0
  %7 = load ptr, ptr %6, align 8, !tbaa !68
  %8 = icmp eq ptr %7, null
  br i1 %8, label %19, label %9

9:                                                ; preds = %2
  %10 = getelementptr inbounds nuw %class.vector.2, ptr %5, i32 0, i32 0
  %11 = load ptr, ptr %10, align 8, !tbaa !68
  %12 = getelementptr inbounds i32, ptr %11, i64 -1
  %13 = load i32, ptr %12, align 4, !tbaa !10
  %14 = getelementptr inbounds nuw %class.vector.2, ptr %5, i32 0, i32 0
  %15 = load ptr, ptr %14, align 8, !tbaa !68
  %16 = getelementptr inbounds i32, ptr %15, i64 -2
  %17 = load i32, ptr %16, align 4, !tbaa !10
  %18 = icmp eq i32 %13, %17
  br i1 %18, label %19, label %20

19:                                               ; preds = %9, %2
  call void @_ZN6vectorIjLb0EjE13expand_vectorEv(ptr noundef nonnull align 8 dereferenceable(8) %5)
  br label %20

20:                                               ; preds = %19, %9
  %21 = getelementptr inbounds nuw %class.vector.2, ptr %5, i32 0, i32 0
  %22 = load ptr, ptr %21, align 8, !tbaa !68
  %23 = getelementptr inbounds nuw %class.vector.2, ptr %5, i32 0, i32 0
  %24 = load ptr, ptr %23, align 8, !tbaa !68
  %25 = getelementptr inbounds i32, ptr %24, i64 -1
  %26 = load i32, ptr %25, align 4, !tbaa !10
  %27 = zext i32 %26 to i64
  %28 = getelementptr inbounds nuw i32, ptr %22, i64 %27
  %29 = load ptr, ptr %4, align 8, !tbaa !88
  %30 = load i32, ptr %29, align 4, !tbaa !10
  store i32 %30, ptr %28, align 4, !tbaa !10
  %31 = getelementptr inbounds nuw %class.vector.2, ptr %5, i32 0, i32 0
  %32 = load ptr, ptr %31, align 8, !tbaa !68
  %33 = getelementptr inbounds i32, ptr %32, i64 -1
  %34 = load i32, ptr %33, align 4, !tbaa !10
  %35 = add i32 %34, 1
  store i32 %35, ptr %33, align 4, !tbaa !10
  ret ptr %5
}

; Function Attrs: mustprogress nounwind uwtable
define linkonce_odr hidden noundef zeroext i1 @_ZNK3sat7literal4signEv(ptr noundef nonnull align 4 dereferenceable(4) %0) #6 comdat align 2 {
  %2 = alloca ptr, align 8
  store ptr %0, ptr %2, align 8, !tbaa !72
  %3 = load ptr, ptr %2, align 8
  %4 = getelementptr inbounds nuw %"class.sat::literal", ptr %3, i32 0, i32 0
  %5 = load i32, ptr %4, align 4, !tbaa !126
  %6 = zext i32 %5 to i64
  %7 = and i64 %6, 1
  %8 = icmp ne i64 %7, 0
  ret i1 %8
}

; Function Attrs: mustprogress nounwind uwtable
define linkonce_odr hidden noundef nonnull align 8 dereferenceable(120) ptr @_ZN6vectorIN3sat12local_search8var_infoELb1EjEixEj(ptr noundef nonnull align 8 dereferenceable(8) %0, i32 noundef %1) #6 comdat align 2 {
  %3 = alloca ptr, align 8
  %4 = alloca i32, align 4
  store ptr %0, ptr %3, align 8, !tbaa !51
  store i32 %1, ptr %4, align 4, !tbaa !10
  %5 = load ptr, ptr %3, align 8
  %6 = getelementptr inbounds nuw %class.vector, ptr %5, i32 0, i32 0
  %7 = load ptr, ptr %6, align 8, !tbaa !73
  %8 = load i32, ptr %4, align 4, !tbaa !10
  %9 = zext i32 %8 to i64
  %10 = getelementptr inbounds nuw %"struct.sat::local_search::var_info", ptr %7, i64 %9
  ret ptr %10
}

; Function Attrs: inlinehint mustprogress uwtable
define linkonce_odr hidden noundef zeroext i1 @_ZNK3sat12local_search7is_unitENS_7literalE(ptr noundef nonnull align 8 dereferenceable(232) %0, i32 %1) #8 comdat align 2 {
  %3 = alloca %"class.sat::literal", align 4
  %4 = alloca ptr, align 8
  %5 = getelementptr inbounds nuw %"class.sat::literal", ptr %3, i32 0, i32 0
  store i32 %1, ptr %5, align 4
  store ptr %0, ptr %4, align 8, !tbaa !3
  %6 = load ptr, ptr %4, align 8
  %7 = getelementptr inbounds nuw %"class.sat::local_search", ptr %6, i32 0, i32 3
  %8 = call noundef i32 @_ZNK3sat7literal3varEv(ptr noundef nonnull align 4 dereferenceable(4) %3)
  %9 = call noundef nonnull align 8 dereferenceable(120) ptr @_ZNK6vectorIN3sat12local_search8var_infoELb1EjEixEj(ptr noundef nonnull align 8 dereferenceable(8) %7, i32 noundef %8)
  %10 = getelementptr inbounds nuw %"struct.sat::local_search::var_info", ptr %9, i32 0, i32 2
  %11 = load i8, ptr %10, align 8, !tbaa !54, !range !49, !noundef !50
  %12 = trunc i8 %11 to i1
  ret i1 %12
}

; Function Attrs: mustprogress nounwind uwtable
define linkonce_odr hidden noundef i32 @_ZNK3sat7literal3varEv(ptr noundef nonnull align 4 dereferenceable(4) %0) #6 comdat align 2 {
  %2 = alloca ptr, align 8
  store ptr %0, ptr %2, align 8, !tbaa !72
  %3 = load ptr, ptr %2, align 8
  %4 = getelementptr inbounds nuw %"class.sat::literal", ptr %3, i32 0, i32 0
  %5 = load i32, ptr %4, align 4, !tbaa !126
  %6 = lshr i32 %5, 1
  ret i32 %6
}

; Function Attrs: mustprogress uwtable
define hidden void @_ZN3sat12local_search8add_unitENS_7literalES1_(ptr noundef nonnull align 8 dereferenceable(232) %0, i32 %1, i32 %2) #4 align 2 {
  %4 = alloca %"class.sat::literal", align 4
  %5 = alloca %"class.sat::literal", align 4
  %6 = alloca ptr, align 8
  %7 = alloca i32, align 4
  %8 = alloca %"class.sat::literal", align 4
  %9 = alloca i32, align 4
  %10 = getelementptr inbounds nuw %"class.sat::literal", ptr %4, i32 0, i32 0
  store i32 %1, ptr %10, align 4
  %11 = getelementptr inbounds nuw %"class.sat::literal", ptr %5, i32 0, i32 0
  store i32 %2, ptr %11, align 4
  store ptr %0, ptr %6, align 8, !tbaa !3
  %12 = load ptr, ptr %6, align 8
  call void @llvm.lifetime.start.p0(i64 4, ptr %7) #3
  %13 = call noundef i32 @_ZNK3sat7literal3varEv(ptr noundef nonnull align 4 dereferenceable(4) %4)
  store i32 %13, ptr %7, align 4, !tbaa !10
  call void @llvm.memcpy.p0.p0.i64(ptr align 4 %8, ptr align 4 %4, i64 4, i1 false), !tbaa.struct !122
  %14 = getelementptr inbounds nuw %"class.sat::literal", ptr %8, i32 0, i32 0
  %15 = load i32, ptr %14, align 4
  %16 = call noundef zeroext i1 @_ZNK3sat12local_search7is_unitENS_7literalE(ptr noundef nonnull align 8 dereferenceable(232) %12, i32 %15)
  br i1 %16, label %17, label %31

17:                                               ; preds = %3
  %18 = getelementptr inbounds nuw %"class.sat::local_search", ptr %12, i32 0, i32 3
  %19 = load i32, ptr %7, align 4, !tbaa !10
  %20 = call noundef nonnull align 8 dereferenceable(120) ptr @_ZN6vectorIN3sat12local_search8var_infoELb1EjEixEj(ptr noundef nonnull align 8 dereferenceable(8) %18, i32 noundef %19)
  %21 = getelementptr inbounds nuw %"struct.sat::local_search::var_info", ptr %20, i32 0, i32 0
  %22 = load i8, ptr %21, align 8, !tbaa !59, !range !49, !noundef !50
  %23 = trunc i8 %22 to i1
  %24 = zext i1 %23 to i32
  %25 = call noundef zeroext i1 @_ZNK3sat7literal4signEv(ptr noundef nonnull align 4 dereferenceable(4) %4)
  %26 = zext i1 %25 to i32
  %27 = icmp eq i32 %24, %26
  br i1 %27, label %28, label %30

28:                                               ; preds = %17
  %29 = getelementptr inbounds nuw %"class.sat::local_search", ptr %12, i32 0, i32 11
  store i8 1, ptr %29, align 1, !tbaa !14
  br label %30

30:                                               ; preds = %28, %17
  store i32 1, ptr %9, align 4
  br label %72

31:                                               ; preds = %3
  %32 = getelementptr inbounds nuw %"class.sat::local_search", ptr %12, i32 0, i32 3
  %33 = load i32, ptr %7, align 4, !tbaa !10
  %34 = call noundef nonnull align 8 dereferenceable(120) ptr @_ZN6vectorIN3sat12local_search8var_infoELb1EjEixEj(ptr noundef nonnull align 8 dereferenceable(8) %32, i32 noundef %33)
  %35 = getelementptr inbounds nuw %"struct.sat::local_search::var_info", ptr %34, i32 0, i32 0
  %36 = load i8, ptr %35, align 8, !tbaa !59, !range !49, !noundef !50
  %37 = trunc i8 %36 to i1
  %38 = zext i1 %37 to i32
  %39 = call noundef zeroext i1 @_ZNK3sat7literal4signEv(ptr noundef nonnull align 4 dereferenceable(4) %4)
  %40 = zext i1 %39 to i32
  %41 = icmp eq i32 %38, %40
  br i1 %41, label %42, label %48

42:                                               ; preds = %31
  %43 = getelementptr inbounds nuw %"class.sat::local_search", ptr %12, i32 0, i32 15
  %44 = load i8, ptr %43, align 8, !tbaa !135, !range !49, !noundef !50
  %45 = trunc i8 %44 to i1
  br i1 %45, label %48, label %46

46:                                               ; preds = %42
  %47 = load i32, ptr %7, align 4, !tbaa !10
  call void @_ZN3sat12local_search12flip_walksatEj(ptr noundef nonnull align 8 dereferenceable(232) %12, i32 noundef %47)
  br label %48

48:                                               ; preds = %46, %42, %31
  %49 = call noundef zeroext i1 @_ZNK3sat7literal4signEv(ptr noundef nonnull align 4 dereferenceable(4) %4)
  %50 = xor i1 %49, true
  %51 = getelementptr inbounds nuw %"class.sat::local_search", ptr %12, i32 0, i32 3
  %52 = load i32, ptr %7, align 4, !tbaa !10
  %53 = call noundef nonnull align 8 dereferenceable(120) ptr @_ZN6vectorIN3sat12local_search8var_infoELb1EjEixEj(ptr noundef nonnull align 8 dereferenceable(8) %51, i32 noundef %52)
  %54 = getelementptr inbounds nuw %"struct.sat::local_search::var_info", ptr %53, i32 0, i32 0
  %55 = zext i1 %50 to i8
  store i8 %55, ptr %54, align 8, !tbaa !59
  %56 = call noundef zeroext i1 @_ZNK3sat7literal4signEv(ptr noundef nonnull align 4 dereferenceable(4) %4)
  %57 = select i1 %56, i32 0, i32 100
  %58 = getelementptr inbounds nuw %"class.sat::local_search", ptr %12, i32 0, i32 3
  %59 = load i32, ptr %7, align 4, !tbaa !10
  %60 = call noundef nonnull align 8 dereferenceable(120) ptr @_ZN6vectorIN3sat12local_search8var_infoELb1EjEixEj(ptr noundef nonnull align 8 dereferenceable(8) %58, i32 noundef %59)
  %61 = getelementptr inbounds nuw %"struct.sat::local_search::var_info", ptr %60, i32 0, i32 1
  store i32 %57, ptr %61, align 4, !tbaa !58
  %62 = getelementptr inbounds nuw %"class.sat::local_search", ptr %12, i32 0, i32 3
  %63 = load i32, ptr %7, align 4, !tbaa !10
  %64 = call noundef nonnull align 8 dereferenceable(120) ptr @_ZN6vectorIN3sat12local_search8var_infoELb1EjEixEj(ptr noundef nonnull align 8 dereferenceable(8) %62, i32 noundef %63)
  %65 = getelementptr inbounds nuw %"struct.sat::local_search::var_info", ptr %64, i32 0, i32 2
  store i8 1, ptr %65, align 8, !tbaa !54
  %66 = getelementptr inbounds nuw %"class.sat::local_search", ptr %12, i32 0, i32 3
  %67 = load i32, ptr %7, align 4, !tbaa !10
  %68 = call noundef nonnull align 8 dereferenceable(120) ptr @_ZN6vectorIN3sat12local_search8var_infoELb1EjEixEj(ptr noundef nonnull align 8 dereferenceable(8) %66, i32 noundef %67)
  %69 = getelementptr inbounds nuw %"struct.sat::local_search::var_info", ptr %68, i32 0, i32 3
  call void @llvm.memcpy.p0.p0.i64(ptr align 4 %69, ptr align 4 %5, i64 4, i1 false), !tbaa.struct !122
  %70 = getelementptr inbounds nuw %"class.sat::local_search", ptr %12, i32 0, i32 5
  %71 = call noundef nonnull align 8 dereferenceable(8) ptr @_ZN6vectorIjLb0EjE9push_backERKj(ptr noundef nonnull align 8 dereferenceable(8) %70, ptr noundef nonnull align 4 dereferenceable(4) %7)
  store i32 0, ptr %9, align 4
  br label %72

72:                                               ; preds = %48, %30
  call void @llvm.lifetime.end.p0(i64 4, ptr %7) #3
  %73 = load i32, ptr %9, align 4
  switch i32 %73, label %75 [
    i32 0, label %74
    i32 1, label %74
  ]

74:                                               ; preds = %72, %72
  ret void

75:                                               ; preds = %72
  unreachable
}