; Function Attrs: mustprogress uwtable
define hidden void @_ZN3sat12local_search8add_unitENS_7literalES1_(ptr noundef nonnull align 8 dereferenceable(232) %0, i32 %1, i32 %2) local_unnamed_addr #3 align 2 {
  %4 = lshr i32 %1, 1
  %5 = getelementptr inbounds nuw i8, ptr %0, i64 40
  %6 = load ptr, ptr %5, align 8, !tbaa !49
  %7 = zext nneg i32 %4 to i64
  %8 = getelementptr inbounds nuw %"struct.sat::local_search::var_info", ptr %6, i64 %7, i32 2
  %9 = load i8, ptr %8, align 8, !tbaa !50, !range !7, !noundef !8
  %10 = trunc nuw i8 %9 to i1
  %11 = getelementptr inbounds nuw %"struct.sat::local_search::var_info", ptr %6, i64 %7
  %12 = load i8, ptr %11, align 8, !tbaa !54, !range !7, !noundef !8
  br i1 %10, label %13, label %19

13:                                               ; preds = %3
  %14 = trunc i32 %1 to i8
  %15 = and i8 %14, 1
  %16 = icmp eq i8 %12, %15
  br i1 %16, label %17, label %52

17:                                               ; preds = %13
  %18 = getelementptr inbounds nuw i8, ptr %0, i64 93
  store i8 1, ptr %18, align 1, !tbaa !18
  br label %52

19:                                               ; preds = %3
  %20 = and i32 %1, 1
  %.not = icmp eq i32 %20, 0
  %21 = trunc nuw nsw i32 %20 to i8
  %22 = icmp eq i8 %12, %21
  br i1 %22, label %23, label %28

23:                                               ; preds = %19
  %24 = getelementptr inbounds nuw i8, ptr %0, i64 120
  %25 = load i8, ptr %24, align 8, !tbaa !55, !range !7, !noundef !8
  %26 = trunc nuw i8 %25 to i1
  br i1 %26, label %28, label %27

27:                                               ; preds = %23
  tail call void @_ZN3sat12local_search12flip_walksatEj(ptr noundef nonnull align 8 dereferenceable(232) %0, i32 noundef %4)
  %.pre = load ptr, ptr %5, align 8, !tbaa !49
  br label %28

28:                                               ; preds = %27, %23, %19
  %29 = phi ptr [ %.pre, %27 ], [ %6, %23 ], [ %6, %19 ]
  %30 = getelementptr inbounds nuw %"struct.sat::local_search::var_info", ptr %29, i64 %7
  %31 = xor i8 %21, 1
  store i8 %31, ptr %30, align 8, !tbaa !54
  %32 = select i1 %.not, i32 100, i32 0
  %33 = getelementptr inbounds nuw i8, ptr %30, i64 4
  store i32 %32, ptr %33, align 4, !tbaa !56
  %34 = getelementptr inbounds nuw i8, ptr %30, i64 8
  store i8 1, ptr %34, align 8, !tbaa !50
  %35 = getelementptr inbounds nuw i8, ptr %30, i64 12
  store i32 %2, ptr %35, align 4, !tbaa !13
  %36 = getelementptr inbounds nuw i8, ptr %0, i64 56
  %37 = load ptr, ptr %36, align 8, !tbaa !9
  %38 = icmp eq ptr %37, null
  br i1 %38, label %45, label %39

39:                                               ; preds = %28
  %40 = getelementptr inbounds i8, ptr %37, i64 -4
  %41 = load i32, ptr %40, align 4, !tbaa !13
  %42 = getelementptr inbounds i8, ptr %37, i64 -8
  %43 = load i32, ptr %42, align 4, !tbaa !13
  %44 = icmp eq i32 %41, %43
  br i1 %44, label %45, label %_ZN6vectorIjLb0EjE9push_backERKj.exit

45:                                               ; preds = %39, %28
  tail call void @_ZN6vectorIjLb0EjE13expand_vectorEv(ptr noundef nonnull align 8 dereferenceable(8) %36)
  %.pre.i = load ptr, ptr %36, align 8, !tbaa !9
  %.phi.trans.insert.i = getelementptr inbounds i8, ptr %.pre.i, i64 -4
  %.pre2.i = load i32, ptr %.phi.trans.insert.i, align 4, !tbaa !13
  br label %_ZN6vectorIjLb0EjE9push_backERKj.exit

_ZN6vectorIjLb0EjE9push_backERKj.exit:            ; preds = %39, %45
  %46 = phi i32 [ %.pre2.i, %45 ], [ %41, %39 ]
  %47 = phi ptr [ %.pre.i, %45 ], [ %37, %39 ]
  %48 = getelementptr inbounds i8, ptr %47, i64 -4
  %49 = zext i32 %46 to i64
  %50 = getelementptr inbounds nuw i32, ptr %47, i64 %49
  store i32 %4, ptr %50, align 4, !tbaa !13
  %51 = add i32 %46, 1
  store i32 %51, ptr %48, align 4, !tbaa !13
  br label %52

52:                                               ; preds = %13, %17, %_ZN6vectorIjLb0EjE9push_backERKj.exit
  ret void
}